; Function Attrs: mustprogress nofree norecurse nosync nounwind willreturn memory(read, inaccessiblemem: none) uwtable
define internal range(i32 -1, 2) i32 @Vec_WecSortCompare3(ptr noundef readonly captures(none) %0, ptr noundef readonly captures(none) %1) #15 {
  %3 = getelementptr i8, ptr %0, i64 8
  %.val6 = load ptr, ptr %3, align 8, !tbaa !11
  %4 = load i32, ptr %.val6, align 4, !tbaa !25
  %5 = getelementptr i8, ptr %1, i64 8
  %.val5 = load ptr, ptr %5, align 8, !tbaa !11
  %6 = load i32, ptr %.val5, align 4, !tbaa !25
  %.0 = tail call i32 @llvm.scmp.i32.i32(i32 %4, i32 %6)
  ret i32 %.0
}